(dp0
I640
S'X01'
p1
sI515
S'W12'
p2
sI519
S'Y14'
p3
sI651
S'X06'
p4
sI783
S'W09'
p5
sI530
S'W08'
p6
sI660
S'W04'
p7
sI789
S'Y07'
p8
sI662
S'Z07'
p9
sI663
S'W01'
p10
sI793
S'X10'
p11
sI666
S'Z05'
p12
sI539
S'X12'
p13
sI796
S'W03'
p14
sI541
S'X13'
p15
sI670
S'X07'
p16
sI815
S'Y15'
p17
sI802
S'X11'
p18
sI675
S'Y05'
p19
sI549
S'Y02'
p20
sI679
S'W13'
p21
sI809
S'W16'
p22
sI810
S'Y04'
p23
sI555
S'Y16'
p24
sI812
S'X15'
p25
sI685
S'W15'
p26
sI559
S'Y01'
p27
sI628
S'Z06'
p28
sI690
S'W14'
p29
sI821
S'X04'
p30
sI825
S'Y12'
p31
sI826
S'Z14'
p32
sI829
S'X03'
p33
sI833
S'Z16'
p34
sI703
S'W11'
p35
sI576
S'Z12'
p36
sI577
S'Y08'
p37
sI708
S'W06'
p38
sI581
S'Y09'
p39
sI839
S'X02'
p40
sI844
S'X08'
p41
sI721
S'Y10'
p42
sI747
S'Z15'
p43
sI599
S'Z11'
p44
sI527
S'Y11'
p45
sI729
S'W05'
p46
sI603
S'W02'
p47
sI732
S'X14'
p48
sI606
S'Y03'
p49
sI736
S'Y13'
p50
sI604
S'Z08'
p51
sI738
S'Z01'
p52
sI551
S'Z09'
p53
sI786
S'Z04'
p54
sI701
S'W07'
p55
sI625
S'Y06'
p56
sI756
S'X16'
p57
sI629
S'X05'
p58
sI758
S'Z10'
p59
sI681
S'Z13'
p60
sI831
S'X09'
p61
sI636
S'Z02'
p62
sI637
S'W10'
p63
sI511
S'Z03'
p64
s.