(dp0
I768
S'X13'
p1
sI769
S'W02'
p2
sI648
S'W13'
p3
sI651
S'W06'
p4
sI781
S'Z14'
p5
sI527
S'Z05'
p6
sI528
S'Y12'
p7
sI546
S'Z07'
p8
sI660
S'X07'
p9
sI789
S'Y09'
p10
sI662
S'X05'
p11
sI663
S'W11'
p12
sI793
S'W10'
p13
sI640
S'Z01'
p14
sI539
S'W05'
p15
sI669
S'Y13'
p16
sI673
S'Y01'
p17
sI802
S'Y05'
p18
sI547
S'X14'
p19
sI549
S'Y03'
p20
sI551
S'Y04'
p21
sI680
S'Z16'
p22
sI554
S'X12'
p23
sI839
S'Z03'
p24
sI556
S'W09'
p25
sI687
S'X15'
p26
sI560
S'W15'
p27
sI818
S'X11'
p28
sI692
S'Z15'
p29
sI821
S'Z02'
p30
sI628
S'Z08'
p31
sI826
S'Z12'
p32
sI827
S'Y10'
p33
sI829
S'W04'
p34
sI830
S'Z09'
p35
sI577
S'X02'
p36
sI603
S'Z10'
p37
sI779
S'Z04'
p38
sI708
S'W01'
p39
sI701
S'W03'
p40
sI545
S'Y15'
p41
sI535
S'Y14'
p42
sI589
S'W16'
p43
sI849
S'W07'
p44
sI723
S'W14'
p45
sI853
S'Y07'
p46
sI727
S'Z13'
p47
sI783
S'Z06'
p48
sI604
S'X03'
p49
sI736
S'W12'
p50
sI737
S'X10'
p51
sI738
S'X08'
p52
sI741
S'X09'
p53
sI721
S'Z11'
p54
sI795
S'Y16'
p55
sI623
S'X06'
p56
sI624
S'Y11'
p57
sI625
S'W08'
p58
sI674
S'Y08'
p59
sI629
S'Y06'
p60
sI632
S'X16'
p61
sI636
S'X01'
p62
sI810
S'Y02'
p63
sI511
S'X04'
p64
s.