(dp0
I768
S'X12'
p1
sI769
S'W03'
p2
sI515
S'X06'
p3
sI790
S'X08'
p4
sI577
S'Z01'
p5
sI778
S'Y07'
p6
sI535
S'Z13'
p7
sI780
S'Z10'
p8
sI783
S'Y03'
p9
sI786
S'Z05'
p10
sI788
S'Y05'
p11
sI789
S'X07'
p12
sI662
S'X04'
p13
sI663
S'Z07'
p14
sI836
S'Y11'
p15
sI640
S'Z02'
p16
sI687
S'Y09'
p17
sI668
S'Z11'
p18
sI670
S'Z03'
p19
sI671
S'W04'
p20
sI546
S'W08'
p21
sI549
S'X02'
p22
sI551
S'Y06'
p23
sI554
S'Y14'
p24
sI559
S'W02'
p25
sI817
S'W12'
p26
sI627
S'Z12'
p27
sI692
S'W16'
p28
sI821
S'X03'
p29
sI822
S'X13'
p30
sI568
S'Z14'
p31
sI698
S'X11'
p32
sI701
S'Z04'
p33
sI574
S'Y10'
p34
sI705
S'X16'
p35
sI708
S'W01'
p36
sI581
S'W13'
p37
sI840
S'W11'
p38
sI713
S'X15'
p39
sI843
S'X10'
p40
sI588
S'W15'
p41
sI674
S'Y04'
p42
sI721
S'W10'
p43
sI722
S'Z08'
p44
sI595
S'Y12'
p45
sI853
S'W06'
p46
sI599
S'Z09'
p47
sI826
S'Y13'
p48
sI734
S'Y16'
p49
sI736
S'W05'
p50
sI738
S'Y02'
p51
sI570
S'Y15'
p52
sI740
S'Z16'
p53
sI741
S'Y08'
p54
sI743
S'W14'
p55
sI747
S'Z15'
p56
sI622
S'W09'
p57
sI623
S'X05'
p58
sI624
S'X09'
p59
sI625
S'W07'
p60
sI755
S'X14'
p61
sI636
S'Y01'
p62
sI810
S'Z06'
p63
sI511
S'X01'
p64
s.