(dp0
I640
S'X03'
p1
sI642
S'W15'
p2
sI515
S'Z04'
p3
sI516
S'X15'
p4
sI662
S'Y02'
p5
sI518
S'Y01'
p6
sI778
S'Y03'
p7
sI651
S'Y07'
p8
sI783
S'Z02'
p9
sI786
S'Y08'
p10
sI789
S'W06'
p11
sI790
S'W04'
p12
sI674
S'X09'
p13
sI793
S'W07'
p14
sI721
S'X13'
p15
sI559
S'Z01'
p16
sI668
S'W02'
p17
sI669
S'X10'
p18
sI671
S'X01'
p19
sI673
S'Z07'
p20
sI802
S'W09'
p21
sI676
S'Z08'
p22
sI549
S'W03'
p23
sI678
S'W12'
p24
sI554
S'W08'
p25
sI686
S'X16'
p26
sI687
S'Y13'
p27
sI562
S'Y10'
p28
sI820
S'Z16'
p29
sI821
S'X02'
p30
sI570
S'W13'
p31
sI829
S'X08'
p32
sI702
S'X14'
p33
sI577
S'W01'
p34
sI708
S'Z03'
p35
sI840
S'X07'
p36
sI805
S'Z12'
p37
sI587
S'X11'
p38
sI842
S'Z14'
p39
sI546
S'X05'
p40
sI720
S'Y04'
p41
sI593
S'W16'
p42
sI722
S'Y09'
p43
sI599
S'Y11'
p44
sI728
S'Z11'
p45
sI602
S'W14'
p46
sI826
S'Y15'
p47
sI607
S'Z10'
p48
sI848
S'Y16'
p49
sI738
S'W10'
p50
sI741
S'X12'
p51
sI849
S'W05'
p52
sI508
S'Z15'
p53
sI701
S'Z09'
p54
sI752
S'Y14'
p55
sI625
S'Y06'
p56
sI628
S'Z05'
p57
sI574
S'Y12'
p58
sI592
S'Z06'
p59
sI639
S'W11'
p60
sI636
S'X06'
p61
sI810
S'Y05'
p62
sI766
S'Z13'
p63
sI511
S'X04'
p64
s.