(dp0
I640
S'W05'
p1
sI642
S'Y15'
p2
sI643
S'Y16'
p3
sI790
S'Z04'
p4
sI518
S'W07'
p5
sI775
S'W12'
p6
sI520
S'W11'
p7
sI778
S'X02'
p8
sI651
S'X07'
p9
sI780
S'W09'
p10
sI655
S'X04'
p11
sI786
S'W04'
p12
sI515
S'Z11'
p13
sI789
S'Y02'
p14
sI662
S'W03'
p15
sI535
S'Y12'
p16
sI793
S'X05'
p17
sI668
S'Z06'
p18
sI671
S'W01'
p19
sI544
S'W15'
p20
sI802
S'Z07'
p21
sI676
S'Z09'
p22
sI549
S'Z02'
p23
sI747
S'Z16'
p24
sI810
S'W06'
p25
sI811
S'Z13'
p26
sI559
S'Z05'
p27
sI816
S'Z15'
p28
sI817
S'Z10'
p29
sI562
S'W10'
p30
sI821
S'W08'
p31
sI822
S'Z12'
p32
sI569
S'X11'
p33
sI826
S'W16'
p34
sI573
S'Y09'
p35
sI577
S'Y01'
p36
sI708
S'Z08'
p37
sI713
S'X15'
p38
sI848
S'X14'
p39
sI721
S'X03'
p40
sI722
S'Y03'
p41
sI597
S'X09'
p42
sI728
S'Y13'
p43
sI730
S'Y11'
p44
sI725
S'Y07'
p45
sI607
S'X10'
p46
sI783
S'Z01'
p47
sI592
S'Y05'
p48
sI738
S'X06'
p49
sI849
S'X08'
p50
sI764
S'Y10'
p51
sI615
S'Y14'
p52
sI720
S'Z03'
p53
sI623
S'Y04'
p54
sI752
S'W13'
p55
sI625
S'Y06'
p56
sI626
S'X12'
p57
sI627
S'W14'
p58
sI629
S'W02'
p59
sI632
S'X16'
p60
sI762
S'X13'
p61
sI636
S'Y08'
p62
sI510
S'Z14'
p63
sI511
S'X01'
p64
s.