(dp0
I640
S'W02'
p1
sI515
S'X07'
p2
sI790
S'Y08'
p3
sI774
S'W14'
p4
sI737
S'Z10'
p5
sI779
S'X09'
p6
sI597
S'Z09'
p7
sI527
S'W03'
p8
sI786
S'Y05'
p9
sI546
S'Y09'
p10
sI789
S'Z11'
p11
sI662
S'X03'
p12
sI535
S'Y10'
p13
sI536
S'X12'
p14
sI793
S'Z06'
p15
sI721
S'Z04'
p16
sI539
S'Z08'
p17
sI671
S'Z01'
p18
sI674
S'Y03'
p19
sI603
S'X10'
p20
sI676
S'W09'
p21
sI549
S'X05'
p22
sI679
S'W16'
p23
sI810
S'W04'
p24
sI818
S'W06'
p25
sI815
S'X16'
p26
sI562
S'W10'
p27
sI565
S'Y13'
p28
sI822
S'W12'
p29
sI830
S'Z05'
p30
sI577
S'W01'
p31
sI579
S'Y15'
p32
sI708
S'Z02'
p33
sI839
S'Y07'
p34
sI716
S'Y16a'
p35
sI717
S'Y06'
p36
sI720
S'W05'
p37
sI849
S'X06'
p38
sI722
S'W11'
p39
sI853
S'Y11'
p40
sI729
S'Z07'
p41
sI602
S'X14'
p42
sI783
S'X01'
p43
sI604
S'W08'
p44
sI605
S'X11'
p45
sI606
S'X08'
p46
sI607
S'Z12'
p47
sI736
S'Z15'
p48
sI848
S'Y16b'
p49
sI610
S'X15'
p50
sI613
S'Y12'
p51
sI506
S'Z16'
p52
sI615
S'W13'
p53
sI616
S'W15'
p54
sI623
S'Y01'
p55
sI625
S'X04'
p56
sI626
S'Z13'
p57
sI627
S'Y14'
p58
sI628
S'W07'
p59
sI629
S'X02'
p60
sI592
S'Z03'
p61
sI835
S'Z14'
p62
sI511
S'Y02'
p63
sI636
S'Y04'
p64
sI639
S'X13'
p65
s.