(lp0
(iclasses
TourneyGame
p1
(dp2
S'winningTeam'
p3
I716
sS'losingTeam'
p4
I848
sba(iclasses
TourneyGame
p5
(dp6
g3
I527
sg4
I774
sba(iclasses
TourneyGame
p7
(dp8
g3
I549
sg4
I536
sba(iclasses
TourneyGame
p9
(dp10
g3
I577
sg4
I679
sba(iclasses
TourneyGame
p11
(dp12
g3
I603
sg4
I515
sba(iclasses
TourneyGame
p13
(dp14
g3
I605
sg4
I849
sba(iclasses
TourneyGame
p15
(dp16
g3
I610
sg4
I629
sba(iclasses
TourneyGame
p17
(dp18
g3
I628
sg4
I562
sba(iclasses
TourneyGame
p19
(dp20
g3
I639
sg4
I625
sba(iclasses
TourneyGame
p21
(dp22
g3
I640
sg4
I616
sba(iclasses
TourneyGame
p23
(dp24
g3
I662
sg4
I602
sba(iclasses
TourneyGame
p25
(dp26
g3
I676
sg4
I604
sba(iclasses
TourneyGame
p27
(dp28
g3
I779
sg4
I606
sba(iclasses
TourneyGame
p29
(dp30
g3
I783
sg4
I815
sba(iclasses
TourneyGame
p31
(dp32
g3
I810
sg4
I615
sba(iclasses
TourneyGame
p33
(dp34
g3
I818
sg4
I722
sba(iclasses
TourneyGame
p35
(dp36
g3
I822
sg4
I720
sba(iclasses
TourneyGame
p37
(dp38
g3
I511
sg4
I579
sba(iclasses
TourneyGame
p39
(dp40
g3
I535
sg4
I839
sba(iclasses
TourneyGame
p41
(dp42
g3
I546
sg4
I790
sba(iclasses
TourneyGame
p43
(dp44
g3
I592
sg4
I835
sba(iclasses
TourneyGame
p45
(dp46
g3
I597
sg4
I539
sba(iclasses
TourneyGame
p47
(dp48
g3
I607
sg4
I830
sba(iclasses
TourneyGame
p49
(dp50
g3
I623
sg4
I716
sba(iclasses
TourneyGame
p51
(dp52
g3
I626
sg4
I721
sba(iclasses
TourneyGame
p53
(dp54
g3
I636
sg4
I565
sba(iclasses
TourneyGame
p55
(dp56
g3
I671
sg4
I506
sba(iclasses
TourneyGame
p57
(dp58
g3
I674
sg4
I627
sba(iclasses
TourneyGame
p59
(dp60
g3
I708
sg4
I736
sba(iclasses
TourneyGame
p61
(dp62
g3
I717
sg4
I853
sba(iclasses
TourneyGame
p63
(dp64
g3
I729
sg4
I737
sba(iclasses
TourneyGame
p65
(dp66
g3
I786
sg4
I613
sba(iclasses
TourneyGame
p67
(dp68
g3
I789
sg4
I793
sba(iclasses
TourneyGame
p69
(dp70
g3
I549
sg4
I639
sba(iclasses
TourneyGame
p71
(dp72
g3
I577
sg4
I676
sba(iclasses
TourneyGame
p73
(dp74
g3
I603
sg4
I610
sba(iclasses
TourneyGame
p75
(dp76
g3
I640
sg4
I628
sba(iclasses
TourneyGame
p77
(dp78
g3
I662
sg4
I605
sba(iclasses
TourneyGame
p79
(dp80
g3
I783
sg4
I779
sba(iclasses
TourneyGame
p81
(dp82
g3
I810
sg4
I822
sba(iclasses
TourneyGame
p83
(dp84
g3
I818
sg4
I527
sba(iclasses
TourneyGame
p85
(dp86
g3
I511
sg4
I535
sba(iclasses
TourneyGame
p87
(dp88
g3
I607
sg4
I626
sba(iclasses
TourneyGame
p89
(dp90
g3
I623
sg4
I546
sba(iclasses
TourneyGame
p91
(dp92
g3
I636
sg4
I786
sba(iclasses
TourneyGame
p93
(dp94
g3
I671
sg4
I597
sba(iclasses
TourneyGame
p95
(dp96
g3
I674
sg4
I717
sba(iclasses
TourneyGame
p97
(dp98
g3
I729
sg4
I708
sba(iclasses
TourneyGame
p99
(dp100
g3
I789
sg4
I592
sba(iclasses
TourneyGame
p101
(dp102
g3
I577
sg4
I810
sba(iclasses
TourneyGame
p103
(dp104
g3
I662
sg4
I603
sba(iclasses
TourneyGame
p105
(dp106
g3
I783
sg4
I549
sba(iclasses
TourneyGame
p107
(dp108
g3
I818
sg4
I640
sba(iclasses
TourneyGame
p109
(dp110
g3
I511
sg4
I674
sba(iclasses
TourneyGame
p111
(dp112
g3
I623
sg4
I636
sba(iclasses
TourneyGame
p113
(dp114
g3
I671
sg4
I607
sba(iclasses
TourneyGame
p115
(dp116
g3
I789
sg4
I729
sba(iclasses
TourneyGame
p117
(dp118
g3
I577
sg4
I818
sba(iclasses
TourneyGame
p119
(dp120
g3
I662
sg4
I783
sba(iclasses
TourneyGame
p121
(dp122
g3
I511
sg4
I623
sba(iclasses
TourneyGame
p123
(dp124
g3
I671
sg4
I789
sba(iclasses
TourneyGame
p125
(dp126
g3
I511
sg4
I671
sba(iclasses
TourneyGame
p127
(dp128
g3
I577
sg4
I662
sba(iclasses
TourneyGame
p129
(dp130
g3
I577
sg4
I511
sba.