(dp0
I640
S'W04'
p1
sI778
S'W09'
p2
sI783
S'X08'
p3
sI528
S'Z16'
p4
sI546
S'Y09'
p5
sI660
S'W05'
p6
sI662
S'W01'
p7
sI674
S'Z09'
p8
sI664
S'X14'
p9
sI793
S'X06'
p10
sI687
S'W14'
p11
sI796
S'W06'
p12
sI671
S'W10'
p13
sI544
S'Y14'
p14
sI802
S'W12'
p15
sI675
S'X03'
p16
sI676
S'Z12'
p17
sI549
S'Z01'
p18
sI680
S'X15'
p19
sI668
S'Z05'
p20
sI810
S'Z08'
p21
sI720
S'Z04'
p22
sI853
S'Z07'
p23
sI818
S'Y04'
p24
sI559
S'W02'
p25
sI816
S'Y13'
p26
sI562
S'X12'
p27
sI821
S'Y12'
p28
sI695
S'W07'
p29
sI568
S'Z13'
p30
sI826
S'W13'
p31
sI539
S'Y06'
p32
sI577
S'Y01'
p33
sI835
S'X09'
p34
sI731
S'Y03'
p35
sI839
S'X07'
p36
sI717
S'Y08'
p37
sI590
S'Y15'
p38
sI592
S'X05'
p39
sI849
S'W08'
p40
sI722
S'Y07'
p41
sI852
S'Z11'
p42
sI725
S'X02'
p43
sI728
S'Y11'
p44
sI730
S'X10'
p45
sI527
S'X11'
p46
sI604
S'W03'
p47
sI607
S'Z06'
p48
sI848
S'Y16'
p49
sI610
S'W15'
p50
sI613
S'Z10'
p51
sI721
S'Z02'
p52
sI616
S'X16'
p53
sI508
S'W16a'
p54
sI749
S'W11'
p55
sI622
S'Z15'
p56
sI623
S'X04'
p57
sI625
S'Y05'
p58
sI754
S'X13'
p59
sI757
S'Z14'
p60
sI504
S'Y02'
p61
sI511
S'Z03'
p62
sI636
S'X01'
p63
sI766
S'W16b'
p64
sI639
S'Y10'
p65
s.