(dp0
I640
S'Y01'
p1
sI512
S'Z10'
p2
sI537
S'Z11'
p3
sI518
S'W10'
p4
sI519
S'W13'
p5
sI623
S'Z04'
p6
sI779
S'W07'
p7
sI783
S'X04'
p8
sI786
S'W03'
p9
sI835
S'Z13'
p10
sI660
S'Y03'
p11
sI662
S'X06'
p12
sI535
S'W12'
p13
sI536
S'X12'
p14
sI793
S'X01'
p15
sI666
S'Z07'
p16
sI539
S'W08'
p17
sI671
S'X07'
p18
sI800
S'X14'
p19
sI802
S'Y13'
p20
sI675
S'W05'
p21
sI804
S'X16a'
p22
sI838
S'Y15'
p23
sI625
S'Y07'
p24
sI556
S'X10'
p25
sI557
S'Z14'
p26
sI814
S'X16b'
p27
sI559
S'X05'
p28
sI816
S'X11'
p29
sI562
S'Z06'
p30
sI821
S'Y09'
p31
sI822
S'Z15'
p32
sI695
S'W09'
p33
sI569
S'Y04'
p34
sI607
S'Z09'
p35
sI828
S'Z16'
p36
sI842
S'Y12'
p37
sI577
S'Z03'
p38
sI651
S'W04'
p39
sI731
S'Y02'
p40
sI839
S'W02'
p41
sI586
S'W15'
p42
sI717
S'Z05'
p43
sI845
S'Z12'
p44
sI592
S'X02'
p45
sI721
S'W01'
p46
sI722
S'W06'
p47
sI853
S'X03'
p48
sI728
S'W11'
p49
sI676
S'Y06'
p50
sI655
S'X08'
p51
sI549
S'Z08'
p52
sI738
S'X09'
p53
sI749
S'Y11'
p54
sI849
S'Y05'
p55
sI616
S'Y14'
p56
sI747
S'W16'
p57
sI658
S'W14'
p58
sI751
S'X15'
p59
sI753
S'X13'
p60
sI631
S'Y16'
p61
sI504
S'Y10'
p62
sI511
S'Z01'
p63
sI636
S'Z02'
p64
sI725
S'Y08'
p65
s.