(dp0
I640
S'Z01'
p1
sI769
S'Y10'
p2
sI644
S'Z16b'
p3
sI645
S'Y16'
p4
sI651
S'W10'
p5
sI714
S'Z14'
p6
sI783
S'X01'
p7
sI536
S'X12'
p8
sI786
S'X05'
p9
sI662
S'X04'
p10
sI836
S'X11'
p11
sI793
S'W03'
p12
sI666
S'Y07'
p13
sI559
S'X02'
p14
sI796
S'Y08'
p15
sI671
S'Z07'
p16
sI546
S'Y09'
p17
sI675
S'W02'
p18
sI549
S'W04'
p19
sI679
S'W15'
p20
sI809
S'Y14'
p21
sI811
S'X14'
p22
sI593
S'Z16a'
p23
sI687
S'W12'
p24
sI820
S'X16'
p25
sI821
S'Z11'
p26
sI658
S'Y12'
p27
sI695
S'X03'
p28
sI824
S'X13'
p29
sI569
S'X10'
p30
sI826
S'Z15'
p31
sI827
S'X06'
p32
sI828
S'X15'
p33
sI573
S'X07'
p34
sI577
S'W01'
p35
sI779
S'Y01'
p36
sI708
S'W06'
p37
sI582
S'Y15'
p38
sI839
S'Y04'
p39
sI840
S'Z08'
p40
sI586
S'W13'
p41
sI727
S'Z12'
p42
sI592
S'Y05'
p43
sI849
S'Y06'
p44
sI722
S'Y02'
p45
sI853
S'W07'
p46
sI825
S'Y13'
p47
sI527
S'Z06'
p48
sI731
S'Y03'
p49
sI606
S'Z03'
p50
sI607
S'Z02'
p51
sI736
S'W14'
p52
sI737
S'Z05'
p53
sI699
S'Z10'
p54
sI743
S'Y11'
p55
sI636
S'Z04'
p56
sI749
S'X09'
p57
sI622
S'Z13'
p58
sI623
S'W05'
p59
sI805
S'Z09'
p60
sI502
S'W11'
p61
sI504
S'X08'
p62
sI506
S'W16'
p63
sI764
S'W08'
p64
sI511
S'W09'
p65
s.