(dp0
I640
S'Y02'
p1
sI651
S'W04'
p2
sI781
S'X10'
p3
sI655
S'X06'
p4
sI786
S'Y04'
p5
sI546
S'Z07'
p6
sI708
S'Z01'
p7
sI533
S'Z14'
p8
sI793
S'X08'
p9
sI796
S'W06'
p10
sI671
S'Y05'
p11
sI673
S'Z08'
p12
sI549
S'Y07'
p13
sI547
S'W15'
p14
sI805
S'X11'
p15
sI680
S'W16'
p16
sI809
S'Z15'
p17
sI810
S'W11'
p18
sI811
S'W13'
p19
sI559
S'Z02'
p20
sI562
S'W10'
p21
sI821
S'Y06'
p22
sI822
S'X14'
p23
sI695
S'Z10'
p24
sI824
S'Y11'
p25
sI699
S'X09'
p26
sI828
S'Y13'
p27
sI829
S'Z05'
p28
sI704
S'Y14'
p29
sI577
S'Y01'
p30
sI505
S'Z16a'
p31
sI580
S'Y15'
p32
sI731
S'W09'
p33
sI839
S'W02'
p34
sI840
S'W01'
p35
sI714
S'Z11'
p36
sI843
S'W07'
p37
sI588
S'X16'
p38
sI845
S'X12'
p39
sI727
S'W08'
p40
sI719
S'Z13'
p41
sI848
S'W14'
p42
sI721
S'Y03'
p43
sI722
S'X02'
p44
sI675
S'Y09'
p45
sI718
S'Z16b'
p46
sI599
S'W12'
p47
sI728
S'X13'
p48
sI527
S'X04'
p49
sI701
S'Z12'
p50
sI606
S'W05'
p51
sI607
S'W03'
p52
sI783
S'Y08'
p53
sI592
S'Z04'
p54
sI571
S'Y16'
p55
sI849
S'Z06'
p56
sI749
S'X07'
p57
sI623
S'X01'
p58
sI723
S'Y12'
p59
sI628
S'Y10'
p60
sI629
S'Z09'
p61
sI504
S'X05'
p62
sI761
S'X15'
p63
sI636
S'Z03'
p64
sI511
S'X03'
p65
s.