(dp0
I768
S'Y14'
p1
sI640
S'Z08'
p2
sI515
S'X08'
p3
sI773
S'W16'
p4
sI848
S'Z15'
p5
sI522
S'X15'
p6
sI727
S'Y13'
p7
sI687
S'Z14'
p8
sI655
S'W04'
p9
sI786
S'W05'
p10
sI660
S'X07'
p11
sI533
S'X09'
p12
sI790
S'Z02'
p13
sI793
S'W02'
p14
sI794
S'W12'
p15
sI539
S'W07'
p16
sI666
S'X01'
p17
sI671
S'Z06'
p18
sI603
S'Y07'
p19
sI805
S'Z09'
p20
sI679
S'Y16b'
p21
sI680
S'Y12'
p22
sI810
S'X02'
p23
sI559
S'Z01'
p24
sI816
S'W09'
p25
sI530
S'X13'
p26
sI822
S'Z12'
p27
sI695
S'W10'
p28
sI568
S'Y15'
p29
sI527
S'Y04'
p30
sI699
S'Y05'
p31
sI829
S'Y01'
p32
sI577
S'W01'
p33
sI708
S'Z03'
p34
sI840
S'Z05'
p35
sI714
S'Y10'
p36
sI843
S'W06'
p37
sI716
S'W14'
p38
sI845
S'Y11'
p39
sI846
S'Z07'
p40
sI720
S'Y02'
p41
sI721
S'Y06'
p42
sI724
S'X16'
p43
sI853
S'X14'
p44
sI599
S'W08'
p45
sI728
S'W15'
p46
sI602
S'Z11'
p47
sI731
S'X05'
p48
sI607
S'X03'
p49
sI592
S'Y03'
p50
sI610
S'Y16a'
p51
sI507
S'Z16'
p52
sI849
S'Y09'
p53
sI764
S'Z10'
p54
sI749
S'W11'
p55
sI623
S'Z04'
p56
sI625
S'X06'
p57
sI754
S'X11'
p58
sI627
S'W13'
p59
sI628
S'W03'
p60
sI502
S'Z13'
p61
sI504
S'X10'
p62
sI511
S'Y08'
p63
sI636
S'X04'
p64
sI639
S'X12'
p65
s.