(lp0
(iclasses
TourneyGame
p1
(dp2
S'winningTeam'
p3
I679
sS'losingTeam'
p4
I610
sba(iclasses
TourneyGame
p5
(dp6
g3
I504
sg4
I660
sba(iclasses
TourneyGame
p7
(dp8
g3
I527
sg4
I727
sba(iclasses
TourneyGame
p9
(dp10
g3
I577
sg4
I773
sba(iclasses
TourneyGame
p11
(dp12
g3
I592
sg4
I768
sba(iclasses
TourneyGame
p13
(dp14
g3
I599
sg4
I816
sba(iclasses
TourneyGame
p15
(dp16
g3
I607
sg4
I853
sba(iclasses
TourneyGame
p17
(dp18
g3
I623
sg4
I502
sba(iclasses
TourneyGame
p19
(dp20
g3
I625
sg4
I754
sba(iclasses
TourneyGame
p21
(dp22
g3
I655
sg4
I627
sba(iclasses
TourneyGame
p23
(dp24
g3
I680
sg4
I699
sba(iclasses
TourneyGame
p25
(dp26
g3
I790
sg4
I848
sba(iclasses
TourneyGame
p27
(dp28
g3
I794
sg4
I786
sba(iclasses
TourneyGame
p29
(dp30
g3
I810
sg4
I522
sba(iclasses
TourneyGame
p31
(dp32
g3
I840
sg4
I822
sba(iclasses
TourneyGame
p33
(dp34
g3
I845
sg4
I721
sba(iclasses
TourneyGame
p35
(dp36
g3
I846
sg4
I764
sba(iclasses
TourneyGame
p37
(dp38
g3
I511
sg4
I849
sba(iclasses
TourneyGame
p39
(dp40
g3
I530
sg4
I636
sba(iclasses
TourneyGame
p41
(dp42
g3
I533
sg4
I515
sba(iclasses
TourneyGame
p43
(dp44
g3
I559
sg4
I507
sba(iclasses
TourneyGame
p45
(dp46
g3
I602
sg4
I671
sba(iclasses
TourneyGame
p47
(dp48
g3
I603
sg4
I714
sba(iclasses
TourneyGame
p49
(dp50
g3
I640
sg4
I805
sba(iclasses
TourneyGame
p51
(dp52
g3
I666
sg4
I724
sba(iclasses
TourneyGame
p53
(dp54
g3
I695
sg4
I539
sba(iclasses
TourneyGame
p55
(dp56
g3
I708
sg4
I687
sba(iclasses
TourneyGame
p57
(dp58
g3
I716
sg4
I628
sba(iclasses
TourneyGame
p59
(dp60
g3
I720
sg4
I568
sba(iclasses
TourneyGame
p61
(dp62
g3
I731
sg4
I639
sba(iclasses
TourneyGame
p63
(dp64
g3
I793
sg4
I728
sba(iclasses
TourneyGame
p65
(dp66
g3
I829
sg4
I679
sba(iclasses
TourneyGame
p67
(dp68
g3
I843
sg4
I749
sba(iclasses
TourneyGame
p69
(dp70
g3
I527
sg4
I680
sba(iclasses
TourneyGame
p71
(dp72
g3
I577
sg4
I599
sba(iclasses
TourneyGame
p73
(dp74
g3
I592
sg4
I845
sba(iclasses
TourneyGame
p75
(dp76
g3
I607
sg4
I625
sba(iclasses
TourneyGame
p77
(dp78
g3
I655
sg4
I794
sba(iclasses
TourneyGame
p79
(dp80
g3
I810
sg4
I504
sba(iclasses
TourneyGame
p81
(dp82
g3
I840
sg4
I623
sba(iclasses
TourneyGame
p83
(dp84
g3
I846
sg4
I790
sba(iclasses
TourneyGame
p85
(dp86
g3
I530
sg4
I731
sba(iclasses
TourneyGame
p87
(dp88
g3
I559
sg4
I640
sba(iclasses
TourneyGame
p89
(dp90
g3
I602
sg4
I708
sba(iclasses
TourneyGame
p91
(dp92
g3
I603
sg4
I720
sba(iclasses
TourneyGame
p93
(dp94
g3
I666
sg4
I533
sba(iclasses
TourneyGame
p95
(dp96
g3
I793
sg4
I695
sba(iclasses
TourneyGame
p97
(dp98
g3
I829
sg4
I511
sba(iclasses
TourneyGame
p99
(dp100
g3
I843
sg4
I716
sba(iclasses
TourneyGame
p101
(dp102
g3
I655
sg4
I577
sba(iclasses
TourneyGame
p103
(dp104
g3
I666
sg4
I530
sba(iclasses
TourneyGame
p105
(dp106
g3
I793
sg4
I843
sba(iclasses
TourneyGame
p107
(dp108
g3
I810
sg4
I607
sba(iclasses
TourneyGame
p109
(dp110
g3
I559
sg4
I840
sba(iclasses
TourneyGame
p111
(dp112
g3
I592
sg4
I603
sba(iclasses
TourneyGame
p113
(dp114
g3
I602
sg4
I846
sba(iclasses
TourneyGame
p115
(dp116
g3
I829
sg4
I527
sba(iclasses
TourneyGame
p117
(dp118
g3
I655
sg4
I793
sba(iclasses
TourneyGame
p119
(dp120
g3
I810
sg4
I666
sba(iclasses
TourneyGame
p121
(dp122
g3
I592
sg4
I829
sba(iclasses
TourneyGame
p123
(dp124
g3
I602
sg4
I559
sba(iclasses
TourneyGame
p125
(dp126
g3
I592
sg4
I602
sba(iclasses
TourneyGame
p127
(dp128
g3
I810
sg4
I655
sba(iclasses
TourneyGame
p129
(dp130
g3
I592
sg4
I810
sba.