(dp0
I848
S'Y11'
p1
sI640
S'Z08'
p2
sI515
S'W12'
p3
sI662
S'Y04'
p4
sI647
S'X12'
p5
sI522
S'W15'
p6
sI651
S'X06'
p7
sI527
S'W07'
p8
sI787
S'Y15'
p9
sI660
S'W08'
p10
sI790
S'X05'
p11
sI793
S'W04'
p12
sI536
S'X08'
p13
sI580
S'W16'
p14
sI666
S'X02'
p15
sI796
S'W10'
p16
sI794
S'X03'
p17
sI671
S'W09'
p18
sI544
S'X16'
p19
sI731
S'Z03'
p20
sI810
S'Z02'
p21
sI562
S'X10'
p22
sI669
S'Y14'
p23
sI817
S'Y07'
p24
sI818
S'W05'
p25
sI568
S'Y13'
p26
sI825
S'Z11'
p27
sI827
S'W06'
p28
sI829
S'Z09'
p29
sI830
S'X04'
p30
sI831
S'Z05'
p31
sI704
S'Z16b'
p32
sI577
S'Z06'
p33
sI708
S'W01'
p34
sI711
S'X15'
p35
sI535
S'Y05'
p36
sI841
S'W03'
p37
sI842
S'Z15'
p38
sI717
S'Y06'
p39
sI720
S'X01'
p40
sI849
S'Y02'
p41
sI723
S'Y12'
p42
sI724
S'W14'
p43
sI853
S'X09'
p44
sI599
S'W11'
p45
sI728
S'X14'
p46
sI603
S'W02'
p47
sI606
S'Y10'
p48
sI607
S'Z10'
p49
sI783
S'X11'
p50
sI592
S'Y01'
p51
sI738
S'Y09'
p52
sI699
S'X07'
p53
sI593
S'Z16a'
p54
sI616
S'Z13'
p55
sI749
S'Z04'
p56
sI623
S'Z12'
p57
sI625
S'Z07'
p58
sI851
S'Z14'
p59
sI702
S'W13'
p60
sI511
S'Y08'
p61
sI632
S'Y16'
p62
sI507
S'X13'
p63
sI636
S'Z01'
p64
sI725
S'Y03'
p65
s.