(dp0
I768
S'W10'
p1
sI640
S'Y11'
p2
sI515
S'W09'
p3
sI519
S'Y15'
p4
sI521
S'Z11'
p5
sI522
S'Z15'
p6
sI779
S'W11'
p7
sI781
S'Y10'
p8
sI526
S'W14'
p9
sI783
S'Y03'
p10
sI835
S'Z12'
p11
sI660
S'Y06'
p12
sI789
S'Y12'
p13
sI790
S'W02'
p14
sI535
S'W07'
p15
sI536
S'Z08'
p16
sI793
S'Y02'
p17
sI666
S'Y01'
p18
sI668
S'Y07'
p19
sI794
S'Z09'
p20
sI671
S'Y05'
p21
sI731
S'Y04'
p22
sI551
S'X05'
p23
sI561
S'Y14'
p24
sI853
S'Z03'
p25
sI813
S'X15'
p26
sI686
S'W16b'
p27
sI559
S'Z04'
p28
sI560
S'W16a'
p29
sI817
S'X08'
p30
sI818
S'X06'
p31
sI819
S'Y16'
p32
sI564
S'X14'
p33
sI568
S'X10'
p34
sI827
S'X04'
p35
sI829
S'X12'
p36
sI575
S'Z05'
p37
sI577
S'Z02'
p38
sI651
S'W03'
p39
sI708
S'W01'
p40
sI753
S'Z13'
p41
sI841
S'W04'
p42
sI843
S'Z07'
p43
sI717
S'W05'
p44
sI848
S'W13'
p45
sI721
S'W06'
p46
sI675
S'Y08'
p47
sI724
S'Y13'
p48
sI725
S'Y09'
p49
sI602
S'W12'
p50
sI603
S'X02'
p51
sI604
S'Z14'
p52
sI733
S'X16'
p53
sI607
S'X07'
p54
sI685
S'Z16'
p55
sI738
S'Z06'
p56
sI849
S'X03'
p57
sI637
S'X11'
p58
sI625
S'W08'
p59
sI810
S'Z01'
p60
sI511
S'Z10'
p61
sI636
S'X01'
p62
sI509
S'W15'
p63
sI766
S'X13'
p64
sI639
S'X09'
p65
s.