(dp0
I512
S'X06'
p1
sI662
S'Z10'
p2
sI682
S'Y16b'
p3
sI651
S'Y01'
p4
sI524
S'W15'
p5
sI714
S'Z12'
p6
sI655
S'X08'
p7
sI786
S'X03'
p8
sI660
S'Z06'
p9
sI789
S'X11'
p10
sI790
S'W09'
p11
sI535
S'X09'
p12
sI536
S'Z08'
p13
sI793
S'W07'
p14
sI666
S'Z02'
p15
sI539
S'Z07'
p16
sI794
S'Z09'
p17
sI670
S'X10'
p18
sI671
S'Y02'
p19
sI561
S'Z14'
p20
sI673
S'W10'
p21
sI675
S'Z13'
p22
sI676
S'Z03'
p23
sI551
S'X07'
p24
sI552
S'Y13'
p25
sI810
S'W06'
p26
sI683
S'X15'
p27
sI559
S'Z01'
p28
sI689
S'Y14'
p29
sI818
S'Y10'
p30
sI821
S'Y05'
p31
sI822
S'Z11'
p32
sI825
S'W11'
p33
sI829
S'W03'
p34
sI565
S'Z15'
p35
sI577
S'W02'
p36
sI835
S'X12'
p37
sI708
S'X01'
p38
sI839
S'Y04'
p39
sI840
S'Z04'
p40
sI586
S'W16'
p41
sI843
S'Y06'
p42
sI765
S'X14'
p43
sI849
S'W12'
p44
sI722
S'W08'
p45
sI595
S'W05'
p46
sI853
S'W04'
p47
sI569
S'Y11'
p48
sI527
S'Y07'
p49
sI731
S'W01'
p50
sI733
S'W13'
p51
sI607
S'X04'
p52
sI720
S'Y08'
p53
sI738
S'Z05'
p54
sI740
S'X16'
p55
sI721
S'X02'
p56
sI745
S'Y15'
p57
sI623
S'X05'
p58
sI547
S'Z16'
p59
sI503
S'X13'
p60
sI506
S'Y16a'
p61
sI636
S'Y03'
p62
sI509
S'W14'
p63
sI766
S'Y09'
p64
sI511
S'Y12'
p65
s.