(dp0
I640
S'W01'
p1
sI514
S'X16a'
p2
sI644
S'Y16'
p3
sI790
S'Y06'
p4
sI521
S'X03'
p5
sI651
S'X09'
p6
sI781
S'X10'
p7
sI714
S'Y09'
p8
sI786
S'Z01'
p9
sI660
S'W06'
p10
sI789
S'W05'
p11
sI662
S'Y04'
p12
sI535
S'Z05'
p13
sI536
S'Z07'
p14
sI793
S'W08'
p15
sI794
S'X05'
p16
sI539
S'X08'
p17
sI751
S'X14'
p18
sI673
S'Z11'
p19
sI731
S'Z03'
p20
sI676
S'W10'
p21
sI551
S'W07'
p22
sI680
S'W14'
p23
sI683
S'W15'
p24
sI687
S'Z13'
p25
sI561
S'W12'
p26
sI822
S'X12'
p27
sI824
S'Z12'
p28
sI671
S'Y05'
p29
sI828
S'Z16'
p30
sI829
S'X02'
p31
sI702
S'Y12'
p32
sI577
S'X01'
p33
sI839
S'W09'
p34
sI840
S'W11'
p35
sI586
S'W16'
p36
sI843
S'W02'
p37
sI717
S'X06'
p38
sI718
S'Z14'
p39
sI719
S'Y14'
p40
sI848
S'X16b'
p41
sI849
S'W04'
p42
sI850
S'W13'
p43
sI723
S'X11'
p44
sI853
S'Z06'
p45
sI603
S'Y03'
p46
sI817
S'Y08'
p47
sI606
S'Y10'
p48
sI607
S'Z08'
p49
sI720
S'Y02'
p50
sI738
S'X04'
p51
sI827
S'Z04'
p52
sI743
S'X07'
p53
sI745
S'X15'
p54
sI722
S'Y07'
p55
sI711
S'Z15'
p56
sI701
S'W03'
p57
sI754
S'Y11'
p58
sI595
S'Z09'
p59
sI757
S'Y15'
p60
sI617
S'Y13'
p61
sI592
S'Z10'
p62
sI636
S'Y01'
p63
sI637
S'Z02'
p64
sI766
S'X13'
p65
s.