(lp0
(iclasses
TourneyGame
p1
(dp2
S'winningTeam'
p3
I551
sS'losingTeam'
p4
I805
sba(iclasses
TourneyGame
p5
(dp6
g3
I814
sg4
I513
sba(iclasses
TourneyGame
p7
(dp8
g3
I820
sg4
I506
sba(iclasses
TourneyGame
p9
(dp10
g3
I825
sg4
I818
sba(iclasses
TourneyGame
p11
(dp12
g3
I535
sg4
I723
sba(iclasses
TourneyGame
p13
(dp14
g3
I536
sg4
I850
sba(iclasses
TourneyGame
p15
(dp16
g3
I549
sg4
I676
sba(iclasses
TourneyGame
p17
(dp18
g3
I559
sg4
I533
sba(iclasses
TourneyGame
p19
(dp20
g3
I592
sg4
I757
sba(iclasses
TourneyGame
p21
(dp22
g3
I607
sg4
I778
sba(iclasses
TourneyGame
p23
(dp24
g3
I637
sg4
I822
sba(iclasses
TourneyGame
p25
(dp26
g3
I640
sg4
I736
sba(iclasses
TourneyGame
p27
(dp28
g3
I682
sg4
I651
sba(iclasses
TourneyGame
p29
(dp30
g3
I731
sg4
I814
sba(iclasses
TourneyGame
p31
(dp32
g3
I743
sg4
I827
sba(iclasses
TourneyGame
p33
(dp34
g3
I754
sg4
I688
sba(iclasses
TourneyGame
p35
(dp36
g3
I789
sg4
I729
sba(iclasses
TourneyGame
p37
(dp38
g3
I810
sg4
I671
sba(iclasses
TourneyGame
p39
(dp40
g3
I843
sg4
I551
sba(iclasses
TourneyGame
p41
(dp42
g3
I849
sg4
I522
sba(iclasses
TourneyGame
p43
(dp44
g3
I511
sg4
I666
sba(iclasses
TourneyGame
p45
(dp46
g3
I577
sg4
I610
sba(iclasses
TourneyGame
p47
(dp48
g3
I595
sg4
I794
sba(iclasses
TourneyGame
p49
(dp50
g3
I602
sg4
I829
sba(iclasses
TourneyGame
p51
(dp52
g3
I623
sg4
I817
sba(iclasses
TourneyGame
p53
(dp54
g3
I636
sg4
I528
sba(iclasses
TourneyGame
p55
(dp56
g3
I660
sg4
I853
sba(iclasses
TourneyGame
p57
(dp58
g3
I670
sg4
I790
sba(iclasses
TourneyGame
p59
(dp60
g3
I708
sg4
I648
sba(iclasses
TourneyGame
p61
(dp62
g3
I717
sg4
I503
sba(iclasses
TourneyGame
p63
(dp64
g3
I720
sg4
I820
sba(iclasses
TourneyGame
p65
(dp66
g3
I738
sg4
I782
sba(iclasses
TourneyGame
p67
(dp68
g3
I786
sg4
I626
sba(iclasses
TourneyGame
p69
(dp70
g3
I793
sg4
I718
sba(iclasses
TourneyGame
p71
(dp72
g3
I825
sg4
I603
sba(iclasses
TourneyGame
p73
(dp74
g3
I840
sg4
I604
sba(iclasses
TourneyGame
p75
(dp76
g3
I535
sg4
I731
sba(iclasses
TourneyGame
p77
(dp78
g3
I536
sg4
I607
sba(iclasses
TourneyGame
p79
(dp80
g3
I559
sg4
I549
sba(iclasses
TourneyGame
p81
(dp82
g3
I592
sg4
I810
sba(iclasses
TourneyGame
p83
(dp84
g3
I640
sg4
I843
sba(iclasses
TourneyGame
p85
(dp86
g3
I743
sg4
I682
sba(iclasses
TourneyGame
p87
(dp88
g3
I754
sg4
I789
sba(iclasses
TourneyGame
p89
(dp90
g3
I849
sg4
I637
sba(iclasses
TourneyGame
p91
(dp92
g3
I511
sg4
I793
sba(iclasses
TourneyGame
p93
(dp94
g3
I577
sg4
I670
sba(iclasses
TourneyGame
p95
(dp96
g3
I595
sg4
I717
sba(iclasses
TourneyGame
p97
(dp98
g3
I636
sg4
I623
sba(iclasses
TourneyGame
p99
(dp100
g3
I660
sg4
I786
sba(iclasses
TourneyGame
p101
(dp102
g3
I708
sg4
I840
sba(iclasses
TourneyGame
p103
(dp104
g3
I720
sg4
I602
sba(iclasses
TourneyGame
p105
(dp106
g3
I825
sg4
I738
sba(iclasses
TourneyGame
p107
(dp108
g3
I511
sg4
I577
sba(iclasses
TourneyGame
p109
(dp110
g3
I535
sg4
I849
sba(iclasses
TourneyGame
p111
(dp112
g3
I559
sg4
I754
sba(iclasses
TourneyGame
p113
(dp114
g3
I592
sg4
I536
sba(iclasses
TourneyGame
p115
(dp116
g3
I636
sg4
I743
sba(iclasses
TourneyGame
p117
(dp118
g3
I640
sg4
I720
sba(iclasses
TourneyGame
p119
(dp120
g3
I708
sg4
I660
sba(iclasses
TourneyGame
p121
(dp122
g3
I825
sg4
I595
sba(iclasses
TourneyGame
p123
(dp124
g3
I535
sg4
I592
sba(iclasses
TourneyGame
p125
(dp126
g3
I559
sg4
I511
sba(iclasses
TourneyGame
p127
(dp128
g3
I640
sg4
I708
sba(iclasses
TourneyGame
p129
(dp130
g3
I825
sg4
I636
sba(iclasses
TourneyGame
p131
(dp132
g3
I535
sg4
I825
sba(iclasses
TourneyGame
p133
(dp134
g3
I559
sg4
I640
sba(iclasses
TourneyGame
p135
(dp136
g3
I559
sg4
I535
sba.