(dp0
I640
S'W04'
p1
sI513
S'Y16a'
p2
sI682
S'Z13'
p3
sI648
S'W15'
p4
sI778
S'Y06'
p5
sI651
S'Z04'
p6
sI533
S'X14'
p7
sI782
S'Z14'
p8
sI528
S'Z16'
p9
sI786
S'W03'
p10
sI660
S'W11'
p11
sI789
S'X07'
p12
sI790
S'X09'
p13
sI535
S'Y08'
p14
sI536
S'Y03'
p15
sI793
S'X04'
p16
sI666
S'X12'
p17
sI794
S'Z07'
p18
sI670
S'X08'
p19
sI671
S'Y10'
p20
sI603
S'Z06'
p21
sI676
S'X11'
p22
sI805
S'W12b'
p23
sI551
S'W12a'
p24
sI810
S'Y07'
p25
sI754
S'X02'
p26
sI814
S'Y16b'
p27
sI559
S'X03'
p28
sI688
S'X15'
p29
sI817
S'Z08'
p30
sI818
S'Z11a'
p31
sI820
S'W16b'
p32
sI822
S'Y12'
p33
sI825
S'Z11b'
p34
sI607
S'Y11'
p35
sI829
S'W09'
p36
sI577
S'X01'
p37
sI522
S'Y13'
p38
sI708
S'W02'
p39
sI840
S'W07'
p40
sI843
S'W05'
p41
sI717
S'Z02'
p42
sI718
S'X13'
p43
sI720
S'W01'
p44
sI849
S'Y04'
p45
sI850
S'Y14'
p46
sI723
S'Y09'
p47
sI853
S'W06'
p48
sI729
S'X10'
p49
sI602
S'W08'
p50
sI731
S'Y01'
p51
sI604
S'W10'
p52
sI549
S'X06'
p53
sI736
S'W13'
p54
sI592
S'Y02'
p55
sI610
S'X16'
p56
sI827
S'Z05'
p57
sI743
S'Z12'
p58
sI623
S'Z09'
p59
sI626
S'W14'
p60
sI595
S'Z10'
p61
sI757
S'Y15'
p62
sI503
S'Z15'
p63
sI506
S'W16a'
p64
sI636
S'Z01'
p65
sI637
S'Y05'
p66
sI738
S'Z03'
p67
sI511
S'X05'
p68
s.