(dp0
I640
S'Y01'
p1
sI771
S'X12b'
p2
sI772
S'W09'
p3
sI775
S'W14'
p4
sI648
S'Z16'
p5
sI521
S'Y03'
p6
sI522
S'X14'
p7
sI651
S'Z04'
p8
sI780
S'Z09'
p9
sI653
S'W15'
p10
sI557
S'Z11'
p11
sI786
S'W01'
p12
sI643
S'X16a'
p13
sI660
S'Z03'
p14
sI789
S'X05'
p15
sI536
S'Z14a'
p16
sI793
S'W11'
p17
sI666
S'Z08'
p18
sI539
S'X12a'
p19
sI687
S'Z06'
p20
sI670
S'X04'
p21
sI671
S'Z01'
p22
sI676
S'Z02'
p23
sI549
S'W06'
p24
sI680
S'W13'
p25
sI647
S'Z12'
p26
sI556
S'Y11'
p27
sI685
S'Y16a'
p28
sI814
S'W16'
p29
sI559
S'Y09'
p30
sI817
S'Y06'
p31
sI562
S'X08'
p32
sI695
S'X11'
p33
sI568
S'Z13'
p34
sI825
S'Y12'
p35
sI827
S'W05'
p36
sI828
S'X16b'
p37
sI701
S'Z05'
p38
sI574
S'X15'
p39
sI577
S'Y02'
p40
sI835
S'Y16b'
p41
sI708
S'X01'
p42
sI644
S'Y15'
p43
sI843
S'W10'
p44
sI717
S'Y07'
p45
sI846
S'Y05'
p46
sI781
S'X07'
p47
sI720
S'W02'
p48
sI849
S'W04'
p49
sI595
S'W03'
p50
sI853
S'Y10'
p51
sI603
S'X03'
p52
sI702
S'Y13'
p53
sI719
S'X13'
p54
sI607
S'W07'
p55
sI592
S'Z07'
p56
sI738
S'X10'
p57
sI830
S'Z10'
p58
sI612
S'W12'
p59
sI748
S'Y14'
p60
sI625
S'Y04'
p61
sI754
S'X06'
p62
sI627
S'Z14b'
p63
sI629
S'Y08'
p64
sI707
S'Z15'
p65
sI504
S'X09'
p66
sI636
S'X02'
p67
sI637
S'W08'
p68
s.