(dp0
I641
S'Z13b'
p1
sI645
S'Y16a'
p2
sI648
S'W16b'
p3
sI522
S'Z11'
p4
sI651
S'Y01'
p5
sI780
S'Y04'
p6
sI781
S'Y11b'
p7
sI526
S'Z13a'
p8
sI786
S'W04'
p9
sI660
S'W03'
p10
sI789
S'W09'
p11
sI535
S'W06'
p12
sI666
S'Y06'
p13
sI539
S'W12'
p14
sI668
S'W02'
p15
sI670
S'X04'
p16
sI671
S'Y03'
p17
sI672
S'Y11a'
p18
sI673
S'X11'
p19
sI674
S'Z12'
p20
sI731
S'Z08'
p21
sI676
S'Y09'
p22
sI549
S'Y10'
p23
sI680
S'W13'
p24
sI810
S'X06'
p25
sI556
S'W10'
p26
sI557
S'Y08'
p27
sI817
S'W05'
p28
sI562
S'Y07'
p29
sI773
S'Z16'
p30
sI693
S'Y16b'
p31
sI695
S'W08'
p32
sI568
S'W14'
p33
sI825
S'X05'
p34
sI826
S'Y14'
p35
sI829
S'X09'
p36
sI702
S'Y13'
p37
sI577
S'Y02'
p38
sI835
S'X16'
p39
sI708
S'X08'
p40
sI701
S'Z03'
p41
sI716
S'X14'
p42
sI717
S'Z07'
p43
sI846
S'Z09'
p44
sI591
S'X15'
p45
sI592
S'X03'
p46
sI721
S'X10'
p47
sI722
S'Y05'
p48
sI511
S'Z06'
p49
sI725
S'Y12'
p50
sI727
S'W15'
p51
sI603
S'X02'
p52
sI607
S'Z01'
p53
sI720
S'Z02'
p54
sI507
S'Y15'
p55
sI612
S'Z14'
p56
sI849
S'Z05'
p57
sI748
S'X13'
p58
sI623
S'W07'
p59
sI625
S'W01'
p60
sI754
S'X07'
p61
sI627
S'Z15'
p62
sI629
S'Z10'
p63
sI503
S'X12'
p64
sI635
S'W16a'
p65
sI636
S'X01'
p66
sI637
S'Z04'
p67
sI533
S'W11'
p68
s.